target datalayout = "e-m:e-p270:32:32-p271:32:32-p272:64:64-i64:64-f80:128-n8:16:32:64-S128"
target triple = "x86_64-pc-linux-gnu"

@.str = private unnamed_addr constant [9 x i8] c"%d %d %d\00", align 1
@.str.1 = private unnamed_addr constant [4 x i8] c"%d\0A\00", align 1

; Function Attrs: noinline nounwind uwtable
define dso_local i32 @main() #0 {
  %1 = alloca i32, align 4
  %2 = alloca i32, align 4
  %3 = alloca i32, align 4
  %4 = alloca i32, align 4
  %5 = alloca i32, align 4
  store i32 0, i32* %1, align 4
  %6 = call i32 (i8*, ...) @__isoc99_scanf(i8* getelementptr inbounds ([9 x i8], [9 x i8]* @.str, i64 0, i64 0), i32* %2, i32* %3, i32* %4)
  %7 = load i32, i32* %2, align 4
  %8 = srem i32 %7, 4
  %9 = icmp eq i32 %8, 0
  br i1 %9, label %10, label %140

10:                                               ; preds = %0
  %11 = load i32, i32* %2, align 4
  %12 = srem i32 %11, 100
  %13 = icmp eq i32 %12, 0
  br i1 %13, label %14, label %99

14:                                               ; preds = %10
  %15 = load i32, i32* %2, align 4
  %16 = srem i32 %15, 400
  %17 = icmp eq i32 %16, 0
  br i1 %17, label %18, label %58

18:                                               ; preds = %14
  %19 = load i32, i32* %3, align 4
  switch i32 %19, label %55 [
    i32 1, label %20
    i32 2, label %22
    i32 3, label %25
    i32 4, label %28
    i32 5, label %31
    i32 6, label %34
    i32 7, label %37
    i32 8, label %40
    i32 9, label %43
    i32 10, label %46
    i32 11, label %49
    i32 12, label %52
  ]

20:                                               ; preds = %18
  %21 = load i32, i32* %4, align 4
  store i32 %21, i32* %5, align 4
  br label %55

22:                                               ; preds = %18
  %23 = load i32, i32* %4, align 4
  %24 = add nsw i32 31, %23
  store i32 %24, i32* %5, align 4
  br label %55

25:                                               ; preds = %18
  %26 = load i32, i32* %4, align 4
  %27 = add nsw i32 60, %26
  store i32 %27, i32* %5, align 4
  br label %55

28:                                               ; preds = %18
  %29 = load i32, i32* %4, align 4
  %30 = add nsw i32 91, %29
  store i32 %30, i32* %5, align 4
  br label %55

31:                                               ; preds = %18
  %32 = load i32, i32* %4, align 4
  %33 = add nsw i32 121, %32
  store i32 %33, i32* %5, align 4
  br label %55

34:                                               ; preds = %18
  %35 = load i32, i32* %4, align 4
  %36 = add nsw i32 152, %35
  store i32 %36, i32* %5, align 4
  br label %55

37:                                               ; preds = %18
  %38 = load i32, i32* %4, align 4
  %39 = add nsw i32 182, %38
  store i32 %39, i32* %5, align 4
  br label %55

40:                                               ; preds = %18
  %41 = load i32, i32* %4, align 4
  %42 = add nsw i32 213, %41
  store i32 %42, i32* %5, align 4
  br label %55

43:                                               ; preds = %18
  %44 = load i32, i32* %4, align 4
  %45 = add nsw i32 244, %44
  store i32 %45, i32* %5, align 4
  br label %55

46:                                               ; preds = %18
  %47 = load i32, i32* %4, align 4
  %48 = add nsw i32 274, %47
  store i32 %48, i32* %5, align 4
  br label %55

49:                                               ; preds = %18
  %50 = load i32, i32* %4, align 4
  %51 = add nsw i32 305, %50
  store i32 %51, i32* %5, align 4
  br label %55

52:                                               ; preds = %18
  %53 = load i32, i32* %4, align 4
  %54 = add nsw i32 335, %53
  store i32 %54, i32* %5, align 4
  br label %55

55:                                               ; preds = %18, %52, %49, %46, %43, %40, %37, %34, %31, %28, %25, %22, %20
  %56 = load i32, i32* %5, align 4
  %57 = call i32 (i8*, ...) @printf(i8* getelementptr inbounds ([4 x i8], [4 x i8]* @.str.1, i64 0, i64 0), i32 %56)
  br label %98

58:                                               ; preds = %14
  %59 = load i32, i32* %3, align 4
  switch i32 %59, label %95 [
    i32 1, label %60
    i32 2, label %62
    i32 3, label %65
    i32 4, label %68
    i32 5, label %71
    i32 6, label %74
    i32 7, label %77
    i32 8, label %80
    i32 9, label %83
    i32 10, label %86
    i32 11, label %89
    i32 12, label %92
  ]

60:                                               ; preds = %58
  %61 = load i32, i32* %4, align 4
  store i32 %61, i32* %5, align 4
  br label %95

62:                                               ; preds = %58
  %63 = load i32, i32* %4, align 4
  %64 = add nsw i32 31, %63
  store i32 %64, i32* %5, align 4
  br label %95

65:                                               ; preds = %58
  %66 = load i32, i32* %4, align 4
  %67 = add nsw i32 59, %66
  store i32 %67, i32* %5, align 4
  br label %95

68:                                               ; preds = %58
  %69 = load i32, i32* %4, align 4
  %70 = add nsw i32 90, %69
  store i32 %70, i32* %5, align 4
  br label %95

71:                                               ; preds = %58
  %72 = load i32, i32* %4, align 4
  %73 = add nsw i32 120, %72
  store i32 %73, i32* %5, align 4
  br label %95

74:                                               ; preds = %58
  %75 = load i32, i32* %4, align 4
  %76 = add nsw i32 151, %75
  store i32 %76, i32* %5, align 4
  br label %95

77:                                               ; preds = %58
  %78 = load i32, i32* %4, align 4
  %79 = add nsw i32 181, %78
  store i32 %79, i32* %5, align 4
  br label %95

80:                                               ; preds = %58
  %81 = load i32, i32* %4, align 4
  %82 = add nsw i32 212, %81
  store i32 %82, i32* %5, align 4
  br label %95

83:                                               ; preds = %58
  %84 = load i32, i32* %4, align 4
  %85 = add nsw i32 243, %84
  store i32 %85, i32* %5, align 4
  br label %95

86:                                               ; preds = %58
  %87 = load i32, i32* %4, align 4
  %88 = add nsw i32 273, %87
  store i32 %88, i32* %5, align 4
  br label %95

89:                                               ; preds = %58
  %90 = load i32, i32* %4, align 4
  %91 = add nsw i32 304, %90
  store i32 %91, i32* %5, align 4
  br label %95

92:                                               ; preds = %58
  %93 = load i32, i32* %4, align 4
  %94 = add nsw i32 334, %93
  store i32 %94, i32* %5, align 4
  br label %95

95:                                               ; preds = %58, %92, %89, %86, %83, %80, %77, %74, %71, %68, %65, %62, %60
  %96 = load i32, i32* %5, align 4
  %97 = call i32 (i8*, ...) @printf(i8* getelementptr inbounds ([4 x i8], [4 x i8]* @.str.1, i64 0, i64 0), i32 %96)
  br label %98

98:                                               ; preds = %95, %55
  br label %139

99:                                               ; preds = %10
  %100 = load i32, i32* %3, align 4
  switch i32 %100, label %136 [
    i32 1, label %101
    i32 2, label %103
    i32 3, label %106
    i32 4, label %109
    i32 5, label %112
    i32 6, label %115
    i32 7, label %118
    i32 8, label %121
    i32 9, label %124
    i32 10, label %127
    i32 11, label %130
    i32 12, label %133
  ]

101:                                              ; preds = %99
  %102 = load i32, i32* %4, align 4
  store i32 %102, i32* %5, align 4
  br label %136

103:                                              ; preds = %99
  %104 = load i32, i32* %4, align 4
  %105 = add nsw i32 31, %104
  store i32 %105, i32* %5, align 4
  br label %136

106:                                              ; preds = %99
  %107 = load i32, i32* %4, align 4
  %108 = add nsw i32 60, %107
  store i32 %108, i32* %5, align 4
  br label %136

109:                                              ; preds = %99
  %110 = load i32, i32* %4, align 4
  %111 = add nsw i32 91, %110
  store i32 %111, i32* %5, align 4
  br label %136

112:                                              ; preds = %99
  %113 = load i32, i32* %4, align 4
  %114 = add nsw i32 121, %113
  store i32 %114, i32* %5, align 4
  br label %136

115:                                              ; preds = %99
  %116 = load i32, i32* %4, align 4
  %117 = add nsw i32 152, %116
  store i32 %117, i32* %5, align 4
  br label %136

118:                                              ; preds = %99
  %119 = load i32, i32* %4, align 4
  %120 = add nsw i32 182, %119
  store i32 %120, i32* %5, align 4
  br label %136

121:                                              ; preds = %99
  %122 = load i32, i32* %4, align 4
  %123 = add nsw i32 213, %122
  store i32 %123, i32* %5, align 4
  br label %136

124:                                              ; preds = %99
  %125 = load i32, i32* %4, align 4
  %126 = add nsw i32 244, %125
  store i32 %126, i32* %5, align 4
  br label %136

127:                                              ; preds = %99
  %128 = load i32, i32* %4, align 4
  %129 = add nsw i32 274, %128
  store i32 %129, i32* %5, align 4
  br label %136

130:                                              ; preds = %99
  %131 = load i32, i32* %4, align 4
  %132 = add nsw i32 305, %131
  store i32 %132, i32* %5, align 4
  br label %136

133:                                              ; preds = %99
  %134 = load i32, i32* %4, align 4
  %135 = add nsw i32 335, %134
  store i32 %135, i32* %5, align 4
  br label %136

136:                                              ; preds = %99, %133, %130, %127, %124, %121, %118, %115, %112, %109, %106, %103, %101
  %137 = load i32, i32* %5, align 4
  %138 = call i32 (i8*, ...) @printf(i8* getelementptr inbounds ([4 x i8], [4 x i8]* @.str.1, i64 0, i64 0), i32 %137)
  br label %139

139:                                              ; preds = %136, %98
  br label %180

140:                                              ; preds = %0
  %141 = load i32, i32* %3, align 4
  switch i32 %141, label %177 [
    i32 1, label %142
    i32 2, label %144
    i32 3, label %147
    i32 4, label %150
    i32 5, label %153
    i32 6, label %156
    i32 7, label %159
    i32 8, label %162
    i32 9, label %165
    i32 10, label %168
    i32 11, label %171
    i32 12, label %174
  ]

142:                                              ; preds = %140
  %143 = load i32, i32* %4, align 4
  store i32 %143, i32* %5, align 4
  br label %177

144:                                              ; preds = %140
  %145 = load i32, i32* %4, align 4
  %146 = add nsw i32 31, %145
  store i32 %146, i32* %5, align 4
  br label %177

147:                                              ; preds = %140
  %148 = load i32, i32* %4, align 4
  %149 = add nsw i32 59, %148
  store i32 %149, i32* %5, align 4
  br label %177

150:                                              ; preds = %140
  %151 = load i32, i32* %4, align 4
  %152 = add nsw i32 90, %151
  store i32 %152, i32* %5, align 4
  br label %177

153:                                              ; preds = %140
  %154 = load i32, i32* %4, align 4
  %155 = add nsw i32 120, %154
  store i32 %155, i32* %5, align 4
  br label %177

156:                                              ; preds = %140
  %157 = load i32, i32* %4, align 4
  %158 = add nsw i32 151, %157
  store i32 %158, i32* %5, align 4
  br label %177

159:                                              ; preds = %140
  %160 = load i32, i32* %4, align 4
  %161 = add nsw i32 181, %160
  store i32 %161, i32* %5, align 4
  br label %177

162:                                              ; preds = %140
  %163 = load i32, i32* %4, align 4
  %164 = add nsw i32 212, %163
  store i32 %164, i32* %5, align 4
  br label %177

165:                                              ; preds = %140
  %166 = load i32, i32* %4, align 4
  %167 = add nsw i32 243, %166
  store i32 %167, i32* %5, align 4
  br label %177

168:                                              ; preds = %140
  %169 = load i32, i32* %4, align 4
  %170 = add nsw i32 273, %169
  store i32 %170, i32* %5, align 4
  br label %177

171:                                              ; preds = %140
  %172 = load i32, i32* %4, align 4
  %173 = add nsw i32 304, %172
  store i32 %173, i32* %5, align 4
  br label %177

174:                                              ; preds = %140
  %175 = load i32, i32* %4, align 4
  %176 = add nsw i32 334, %175
  store i32 %176, i32* %5, align 4
  br label %177

177:                                              ; preds = %140, %174, %171, %168, %165, %162, %159, %156, %153, %150, %147, %144, %142
  %178 = load i32, i32* %5, align 4
  %179 = call i32 (i8*, ...) @printf(i8* getelementptr inbounds ([4 x i8], [4 x i8]* @.str.1, i64 0, i64 0), i32 %178)
  br label %180

180:                                              ; preds = %177, %139
  ret i32 0
}